; Function Attrs: null_pointer_is_valid sspstrong uwtable
define noundef zeroext i1 @tvb_bytes_exist(ptr noundef readonly captures(address_is_null) %0, i32 noundef %1, i32 noundef %2) local_unnamed_addr #0 {
  %.not = icmp eq ptr %0, null
  br i1 %.not, label %8, label %4

4:                                                ; preds = %3
  %5 = getelementptr inbounds nuw i8, ptr %0, i64 16
  %6 = load i8, ptr %5, align 8, !range !9, !noundef !10
  %7 = trunc nuw i8 %6 to i1
  br i1 %7, label %9, label %8

8:                                                ; preds = %4, %3
  tail call void (ptr, ...) @proto_report_dissector_bug(ptr noundef nonnull @.str, ptr noundef nonnull @.str.1, i32 noundef 611, ptr noundef nonnull @.str.5) #18
  unreachable

9:                                                ; preds = %4
  %10 = icmp slt i32 %2, 0
  br i1 %10, label %check_offset_length_no_exception.exit, label %11

11:                                               ; preds = %9
  %12 = icmp sgt i32 %1, -1
  br i1 %12, label %13, label %16

13:                                               ; preds = %11
  %14 = getelementptr inbounds nuw i8, ptr %0, i64 40
  %15 = load i32, ptr %14, align 8
  %.not32.i.i = icmp ugt i32 %1, %15
  br i1 %.not32.i.i, label %check_offset_length_no_exception.exit, label %22, !prof !11

16:                                               ; preds = %11
  %17 = sub i32 0, %1
  %18 = getelementptr inbounds nuw i8, ptr %0, i64 40
  %19 = load i32, ptr %18, align 8
  %.not.i.i = icmp ult i32 %19, %17
  br i1 %.not.i.i, label %check_offset_length_no_exception.exit, label %20, !prof !11

20:                                               ; preds = %16
  %21 = add i32 %19, %1
  br label %22

22:                                               ; preds = %20, %13
  %23 = phi i32 [ %19, %20 ], [ %15, %13 ]
  %24 = phi i32 [ %21, %20 ], [ %1, %13 ]
  %25 = add i32 %24, %2
  %26 = icmp ult i32 %25, %24
  br i1 %26, label %check_offset_length_no_exception.exit, label %27

27:                                               ; preds = %22
  %.not.i27.i = icmp ugt i32 %25, %23
  br i1 %.not.i27.i, label %28, label %check_offset_length_no_exception.exit, !prof !11

28:                                               ; preds = %27
  br label %check_offset_length_no_exception.exit

check_offset_length_no_exception.exit:            ; preds = %28, %16, %13, %27, %22, %9
  %.0 = phi i1 [ false, %9 ], [ false, %22 ], [ true, %27 ], [ false, %28 ], [ false, %13 ], [ false, %16 ]
  ret i1 %.0
}